(dp0
S'MVI_40763'
p1
(dp2
S'threshold'
p3
F20.0
sS'keypoints'
p4
(lp5
F442.75
aF100.98
assS'MVI_40762'
p6
(dp7
g3
F20.0
sg4
(lp8
F442.75
aF100.98
assS'MVI_39361'
p9
(dp10
g3
F20.0
sg4
(lp11
F442.75
aF100.98
assS'MVI_40904'
p12
(dp13
g3
F20.0
sg4
(lp14
F442.75
aF100.98
assS'MVI_39371'
p15
(dp16
g3
F20.0
sg4
(lp17
F442.75
aF100.98
assS'MVI_39501'
p18
(dp19
g3
F20.0
sg4
(lp20
F442.75
aF100.98
assS'MVI_40773'
p21
(dp22
g3
F20.0
sg4
(lp23
F442.75
aF100.98
assS'MVI_40714'
p24
(dp25
g3
F20.0
sg4
(lp26
F442.75
aF100.98
assS'MVI_40891'
p27
(dp28
g3
F20.0
sg4
(lp29
F442.75
aF100.98
assS'MVI_39271'
p30
(dp31
g3
F20.0
sg4
(lp32
F442.75
aF100.98
assS'MVI_40761'
p33
(dp34
g3
F20.0
sg4
(lp35
F442.75
aF100.98
assS'MVI_40743'
p36
(dp37
g3
F20.0
sg4
(lp38
F442.75
aF100.98
assS'MVI_40742'
p39
(dp40
g3
F20.0
sg4
(lp41
F442.75
aF100.98
assS'MVI_40701'
p42
(dp43
g3
F20.0
sg4
(lp44
F442.75
aF100.98
assS'MVI_39311'
p45
(dp46
g3
F20.0
sg4
(lp47
F442.75
aF100.98
assS'MVI_39051'
p48
(dp49
g3
F20.0
sg4
(lp50
F442.75
aF100.98
assS'MVI_40851'
p51
(dp52
g3
F20.0
sg4
(lp53
F442.75
aF100.98
assS'MVI_39211'
p54
(dp55
g3
F20.0
sg4
(lp56
F442.75
aF100.98
assS'MVI_40902'
p57
(dp58
g3
F20.0
sg4
(lp59
F442.75
aF100.98
assS'MVI_40892'
p60
(dp61
g3
F20.0
sg4
(lp62
F442.75
aF100.98
assS'MVI_39031'
p63
(dp64
g3
F20.0
sg4
(lp65
F442.75
aF100.98
assS'MVI_40771'
p66
(dp67
g3
F20.0
sg4
(lp68
F442.75
aF100.98
assS'MVI_40712'
p69
(dp70
g3
F20.0
sg4
(lp71
F442.75
aF100.98
assS'MVI_40863'
p72
(dp73
g3
F20.0
sg4
(lp74
F442.75
aF100.98
assS'MVI_40864'
p75
(dp76
g3
F20.0
sg4
(lp77
F442.75
aF100.98
assS'MVI_40772'
p78
(dp79
g3
F20.0
sg4
(lp80
F442.75
aF100.98
assS'MVI_40774'
p81
(dp82
g3
F20.0
sg4
(lp83
F442.75
aF100.98
assS'MVI_40793'
p84
(dp85
g3
F20.0
sg4
(lp86
F442.75
aF100.98
assS'MVI_40853'
p87
(dp88
g3
F20.0
sg4
(lp89
F442.75
aF100.98
assS'MVI_40852'
p90
(dp91
g3
F20.0
sg4
(lp92
F442.75
aF100.98
assS'MVI_40855'
p93
(dp94
g3
F20.0
sg4
(lp95
F442.75
aF100.98
assS'MVI_40854'
p96
(dp97
g3
F20.0
sg4
(lp98
F442.75
aF100.98
assS'MVI_40901'
p99
(dp100
g3
F20.0
sg4
(lp101
F442.75
aF100.98
assS'MVI_40792'
p102
(dp103
g3
F20.0
sg4
(lp104
F442.75
aF100.98
assS'MVI_40711'
p105
(dp106
g3
F20.0
sg4
(lp107
F442.75
aF100.98
assS'MVI_39511'
p108
(dp109
g3
F20.0
sg4
(lp110
F442.75
aF100.98
assS'MVI_40775'
p111
(dp112
g3
F20.0
sg4
(lp113
F442.75
aF100.98
assS'MVI_40903'
p114
(dp115
g3
F20.0
sg4
(lp116
F442.75
aF100.98
assS'MVI_40905'
p117
(dp118
g3
F20.0
sg4
(lp119
F442.75
aF100.98
assS'MVI_39401'
p120
(dp121
g3
F20.0
sg4
(lp122
F442.75
aF100.98
ass.